target datalayout = "e-m:e-p270:32:32-p271:32:32-p272:64:64-i64:64-i128:128-f80:128-n8:16:32:64-S128"
target triple = "x86_64-pc-linux-gnu"

%"class.pxrInternal_v0_24__pxrReserved__::VtArray.78" = type { %"class.pxrInternal_v0_24__pxrReserved__::Vt_ArrayBase", ptr }
%"class.pxrInternal_v0_24__pxrReserved__::Vt_ArrayBase" = type { %"struct.pxrInternal_v0_24__pxrReserved__::Vt_ShapeData", ptr }
%"struct.pxrInternal_v0_24__pxrReserved__::Vt_ShapeData" = type { i64, [3 x i32] }

@.str.55 = private unnamed_addr constant [5 x i8] c"bool\00", align 1

; Function Attrs: mustprogress uwtable
define dso_local void @_Z7GetInfoIbEvPN32pxrInternal_v0_24__pxrReserved__7VtArrayIT_EEPNSt7__cxx1112basic_stringIcSt11char_traitsIcESaIcEEE(ptr noundef %0, ptr noundef %1) #4 personality ptr @__gxx_personality_v0 {
  %3 = alloca ptr, align 8
  %4 = alloca ptr, align 8
  %5 = alloca %"class.pxrInternal_v0_24__pxrReserved__::VtArray.78", align 8
  %6 = alloca ptr, align 8
  %7 = alloca i32, align 4
  store ptr %0, ptr %3, align 8
  store ptr %1, ptr %4, align 8
  %8 = load ptr, ptr %4, align 8
  %9 = call noundef nonnull align 8 dereferenceable(32) ptr @_ZNSt7__cxx1112basic_stringIcSt11char_traitsIcESaIcEEaSEPKc(ptr noundef nonnull align 8 dereferenceable(32) %8, ptr noundef @.str.55)
  call void @_ZN32pxrInternal_v0_24__pxrReserved__7VtArrayIbEC1Em(ptr noundef nonnull align 8 dereferenceable(40) %5, i64 noundef 3)
  %10 = load ptr, ptr %3, align 8
  %11 = invoke noundef nonnull align 8 dereferenceable(40) ptr @_ZN32pxrInternal_v0_24__pxrReserved__7VtArrayIbEaSEOS1_(ptr noundef nonnull align 8 dereferenceable(40) %10, ptr noundef nonnull align 8 dereferenceable(40) %5)
          to label %12 unwind label %19

12:                                               ; preds = %2
  call void @_ZN32pxrInternal_v0_24__pxrReserved__7VtArrayIbED1Ev(ptr noundef nonnull align 8 dereferenceable(40) %5) #3
  %13 = load ptr, ptr %3, align 8
  %14 = call noundef nonnull align 1 dereferenceable(1) ptr @_ZN32pxrInternal_v0_24__pxrReserved__7VtArrayIbEixEm(ptr noundef nonnull align 8 dereferenceable(40) %13, i64 noundef 0)
  store i8 1, ptr %14, align 1
  %15 = load ptr, ptr %3, align 8
  %16 = call noundef nonnull align 1 dereferenceable(1) ptr @_ZN32pxrInternal_v0_24__pxrReserved__7VtArrayIbEixEm(ptr noundef nonnull align 8 dereferenceable(40) %15, i64 noundef 1)
  store i8 0, ptr %16, align 1
  %17 = load ptr, ptr %3, align 8
  %18 = call noundef nonnull align 1 dereferenceable(1) ptr @_ZN32pxrInternal_v0_24__pxrReserved__7VtArrayIbEixEm(ptr noundef nonnull align 8 dereferenceable(40) %17, i64 noundef 2)
  store i8 1, ptr %18, align 1
  ret void

19:                                               ; preds = %2
  %20 = landingpad { ptr, i32 }
          cleanup
  %21 = extractvalue { ptr, i32 } %20, 0
  store ptr %21, ptr %6, align 8
  %22 = extractvalue { ptr, i32 } %20, 1
  store i32 %22, ptr %7, align 4
  call void @_ZN32pxrInternal_v0_24__pxrReserved__7VtArrayIbED1Ev(ptr noundef nonnull align 8 dereferenceable(40) %5) #3
  br label %23

23:                                               ; preds = %19
  %24 = load ptr, ptr %6, align 8
  %25 = load i32, ptr %7, align 4
  %26 = insertvalue { ptr, i32 } poison, ptr %24, 0
  %27 = insertvalue { ptr, i32 } %26, i32 %25, 1
  resume { ptr, i32 } %27
}